target datalayout = "e-m:e-p270:32:32-p271:32:32-p272:64:64-i64:64-i128:128-f80:128-n8:16:32:64-S128"
target triple = "x86_64-pc-linux-gnu"

%struct.cs_sparse = type { i32, i32, i32, ptr, ptr, ptr, i32 }
%struct.cs_symbolic = type { ptr, ptr, ptr, ptr, ptr, i32, double, double }

; Function Attrs: nounwind uwtable
define ptr @cs_sqr(i32 noundef %0, ptr noundef %1, i32 noundef %2) #0 {
  %4 = alloca ptr, align 8
  %5 = alloca i32, align 4
  %6 = alloca ptr, align 8
  %7 = alloca i32, align 4
  %8 = alloca i32, align 4
  %9 = alloca i32, align 4
  %10 = alloca i32, align 4
  %11 = alloca ptr, align 8
  %12 = alloca ptr, align 8
  %13 = alloca i32, align 4
  %14 = alloca ptr, align 8
  store i32 %0, ptr %5, align 4, !tbaa !3
  store ptr %1, ptr %6, align 8, !tbaa !7
  store i32 %2, ptr %7, align 4, !tbaa !3
  call void @llvm.lifetime.start.p0(i64 4, ptr %8) #3
  call void @llvm.lifetime.start.p0(i64 4, ptr %9) #3
  call void @llvm.lifetime.start.p0(i64 4, ptr %10) #3
  store i32 1, ptr %10, align 4, !tbaa !3
  call void @llvm.lifetime.start.p0(i64 8, ptr %11) #3
  call void @llvm.lifetime.start.p0(i64 8, ptr %12) #3
  %15 = load ptr, ptr %6, align 8, !tbaa !7
  %16 = icmp ne ptr %15, null
  br i1 %16, label %17, label %22

17:                                               ; preds = %3
  %18 = load ptr, ptr %6, align 8, !tbaa !7
  %19 = getelementptr inbounds nuw %struct.cs_sparse, ptr %18, i32 0, i32 6
  %20 = load i32, ptr %19, align 8, !tbaa !10
  %21 = icmp eq i32 %20, -1
  br i1 %21, label %23, label %22

22:                                               ; preds = %17, %3
  store ptr null, ptr %4, align 8
  store i32 1, ptr %13, align 4
  br label %179

23:                                               ; preds = %17
  %24 = load ptr, ptr %6, align 8, !tbaa !7
  %25 = getelementptr inbounds nuw %struct.cs_sparse, ptr %24, i32 0, i32 2
  %26 = load i32, ptr %25, align 8, !tbaa !14
  store i32 %26, ptr %8, align 4, !tbaa !3
  %27 = call ptr @cs_calloc(i32 noundef 1, i64 noundef 64)
  store ptr %27, ptr %12, align 8, !tbaa !15
  %28 = load ptr, ptr %12, align 8, !tbaa !15
  %29 = icmp ne ptr %28, null
  br i1 %29, label %31, label %30

30:                                               ; preds = %23
  store ptr null, ptr %4, align 8
  store i32 1, ptr %13, align 4
  br label %179

31:                                               ; preds = %23
  %32 = load i32, ptr %5, align 4, !tbaa !3
  %33 = load ptr, ptr %6, align 8, !tbaa !7
  %34 = call ptr @cs_amd(i32 noundef %32, ptr noundef %33)
  %35 = load ptr, ptr %12, align 8, !tbaa !15
  %36 = getelementptr inbounds nuw %struct.cs_symbolic, ptr %35, i32 0, i32 1
  store ptr %34, ptr %36, align 8, !tbaa !17
  %37 = load i32, ptr %5, align 4, !tbaa !3
  %38 = icmp ne i32 %37, 0
  br i1 %38, label %39, label %47

39:                                               ; preds = %31
  %40 = load ptr, ptr %12, align 8, !tbaa !15
  %41 = getelementptr inbounds nuw %struct.cs_symbolic, ptr %40, i32 0, i32 1
  %42 = load ptr, ptr %41, align 8, !tbaa !17
  %43 = icmp ne ptr %42, null
  br i1 %43, label %47, label %44

44:                                               ; preds = %39
  %45 = load ptr, ptr %12, align 8, !tbaa !15
  %46 = call ptr @cs_sfree(ptr noundef %45)
  store ptr %46, ptr %4, align 8
  store i32 1, ptr %13, align 4
  br label %179

47:                                               ; preds = %39, %31
  %48 = load i32, ptr %7, align 4, !tbaa !3
  %49 = icmp ne i32 %48, 0
  br i1 %49, label %50, label %150

50:                                               ; preds = %47
  call void @llvm.lifetime.start.p0(i64 8, ptr %14) #3
  %51 = load i32, ptr %5, align 4, !tbaa !3
  %52 = icmp ne i32 %51, 0
  br i1 %52, label %53, label %59

53:                                               ; preds = %50
  %54 = load ptr, ptr %6, align 8, !tbaa !7
  %55 = load ptr, ptr %12, align 8, !tbaa !15
  %56 = getelementptr inbounds nuw %struct.cs_symbolic, ptr %55, i32 0, i32 1
  %57 = load ptr, ptr %56, align 8, !tbaa !17
  %58 = call ptr @cs_permute(ptr noundef %54, ptr noundef null, ptr noundef %57, i32 noundef 0)
  br label %61

59:                                               ; preds = %50
  %60 = load ptr, ptr %6, align 8, !tbaa !7
  br label %61

61:                                               ; preds = %59, %53
  %62 = phi ptr [ %58, %53 ], [ %60, %59 ]
  store ptr %62, ptr %14, align 8, !tbaa !7
  %63 = load ptr, ptr %14, align 8, !tbaa !7
  %64 = call ptr @cs_etree(ptr noundef %63, i32 noundef 1)
  %65 = load ptr, ptr %12, align 8, !tbaa !15
  %66 = getelementptr inbounds nuw %struct.cs_symbolic, ptr %65, i32 0, i32 2
  store ptr %64, ptr %66, align 8, !tbaa !20
  %67 = load ptr, ptr %12, align 8, !tbaa !15
  %68 = getelementptr inbounds nuw %struct.cs_symbolic, ptr %67, i32 0, i32 2
  %69 = load ptr, ptr %68, align 8, !tbaa !20
  %70 = load i32, ptr %8, align 4, !tbaa !3
  %71 = call ptr @cs_post(ptr noundef %69, i32 noundef %70)
  store ptr %71, ptr %11, align 8, !tbaa !21
  %72 = load ptr, ptr %14, align 8, !tbaa !7
  %73 = load ptr, ptr %12, align 8, !tbaa !15
  %74 = getelementptr inbounds nuw %struct.cs_symbolic, ptr %73, i32 0, i32 2
  %75 = load ptr, ptr %74, align 8, !tbaa !20
  %76 = load ptr, ptr %11, align 8, !tbaa !21
  %77 = call ptr @cs_counts(ptr noundef %72, ptr noundef %75, ptr noundef %76, i32 noundef 1)
  %78 = load ptr, ptr %12, align 8, !tbaa !15
  %79 = getelementptr inbounds nuw %struct.cs_symbolic, ptr %78, i32 0, i32 3
  store ptr %77, ptr %79, align 8, !tbaa !22
  %80 = load ptr, ptr %11, align 8, !tbaa !21
  %81 = call ptr @cs_free(ptr noundef %80)
  %82 = load ptr, ptr %14, align 8, !tbaa !7
  %83 = icmp ne ptr %82, null
  br i1 %83, label %84, label %99

84:                                               ; preds = %61
  %85 = load ptr, ptr %12, align 8, !tbaa !15
  %86 = getelementptr inbounds nuw %struct.cs_symbolic, ptr %85, i32 0, i32 2
  %87 = load ptr, ptr %86, align 8, !tbaa !20
  %88 = icmp ne ptr %87, null
  br i1 %88, label %89, label %99

89:                                               ; preds = %84
  %90 = load ptr, ptr %12, align 8, !tbaa !15
  %91 = getelementptr inbounds nuw %struct.cs_symbolic, ptr %90, i32 0, i32 3
  %92 = load ptr, ptr %91, align 8, !tbaa !22
  %93 = icmp ne ptr %92, null
  br i1 %93, label %94, label %99

94:                                               ; preds = %89
  %95 = load ptr, ptr %14, align 8, !tbaa !7
  %96 = load ptr, ptr %12, align 8, !tbaa !15
  %97 = call i32 @cs_vcount(ptr noundef %95, ptr noundef %96)
  %98 = icmp ne i32 %97, 0
  br label %99

99:                                               ; preds = %94, %89, %84, %61
  %100 = phi i1 [ false, %89 ], [ false, %84 ], [ false, %61 ], [ %98, %94 ]
  %101 = zext i1 %100 to i32
  store i32 %101, ptr %10, align 4, !tbaa !3
  %102 = load i32, ptr %10, align 4, !tbaa !3
  %103 = icmp ne i32 %102, 0
  br i1 %103, label %104, label %128

104:                                              ; preds = %99
  %105 = load ptr, ptr %12, align 8, !tbaa !15
  %106 = getelementptr inbounds nuw %struct.cs_symbolic, ptr %105, i32 0, i32 7
  store double 0.000000e+00, ptr %106, align 8, !tbaa !23
  store i32 0, ptr %9, align 4, !tbaa !3
  br label %107

107:                                              ; preds = %124, %104
  %108 = load i32, ptr %9, align 4, !tbaa !3
  %109 = load i32, ptr %8, align 4, !tbaa !3
  %110 = icmp slt i32 %108, %109
  br i1 %110, label %111, label %127

111:                                              ; preds = %107
  %112 = load ptr, ptr %12, align 8, !tbaa !15
  %113 = getelementptr inbounds nuw %struct.cs_symbolic, ptr %112, i32 0, i32 3
  %114 = load ptr, ptr %113, align 8, !tbaa !22
  %115 = load i32, ptr %9, align 4, !tbaa !3
  %116 = sext i32 %115 to i64
  %117 = getelementptr inbounds i32, ptr %114, i64 %116
  %118 = load i32, ptr %117, align 4, !tbaa !3
  %119 = sitofp i32 %118 to double
  %120 = load ptr, ptr %12, align 8, !tbaa !15
  %121 = getelementptr inbounds nuw %struct.cs_symbolic, ptr %120, i32 0, i32 7
  %122 = load double, ptr %121, align 8, !tbaa !23
  %123 = fadd double %122, %119
  store double %123, ptr %121, align 8, !tbaa !23
  br label %124

124:                                              ; preds = %111
  %125 = load i32, ptr %9, align 4, !tbaa !3
  %126 = add nsw i32 %125, 1
  store i32 %126, ptr %9, align 4, !tbaa !3
  br label %107, !llvm.loop !24

127:                                              ; preds = %107
  br label %128

128:                                              ; preds = %127, %99
  %129 = load i32, ptr %10, align 4, !tbaa !3
  %130 = icmp ne i32 %129, 0
  br i1 %130, label %131, label %141

131:                                              ; preds = %128
  %132 = load ptr, ptr %12, align 8, !tbaa !15
  %133 = getelementptr inbounds nuw %struct.cs_symbolic, ptr %132, i32 0, i32 6
  %134 = load double, ptr %133, align 8, !tbaa !26
  %135 = fcmp oge double %134, 0.000000e+00
  br i1 %135, label %136, label %141

136:                                              ; preds = %131
  %137 = load ptr, ptr %12, align 8, !tbaa !15
  %138 = getelementptr inbounds nuw %struct.cs_symbolic, ptr %137, i32 0, i32 7
  %139 = load double, ptr %138, align 8, !tbaa !23
  %140 = fcmp oge double %139, 0.000000e+00
  br label %141

141:                                              ; preds = %136, %131, %128
  %142 = phi i1 [ false, %131 ], [ false, %128 ], [ %140, %136 ]
  %143 = zext i1 %142 to i32
  store i32 %143, ptr %10, align 4, !tbaa !3
  %144 = load i32, ptr %5, align 4, !tbaa !3
  %145 = icmp ne i32 %144, 0
  br i1 %145, label %146, label %149

146:                                              ; preds = %141
  %147 = load ptr, ptr %14, align 8, !tbaa !7
  %148 = call ptr @cs_spfree(ptr noundef %147)
  br label %149

149:                                              ; preds = %146, %141
  call void @llvm.lifetime.end.p0(i64 8, ptr %14) #3
  br label %169

150:                                              ; preds = %47
  %151 = load ptr, ptr %6, align 8, !tbaa !7
  %152 = getelementptr inbounds nuw %struct.cs_sparse, ptr %151, i32 0, i32 3
  %153 = load ptr, ptr %152, align 8, !tbaa !27
  %154 = load i32, ptr %8, align 4, !tbaa !3
  %155 = sext i32 %154 to i64
  %156 = getelementptr inbounds i32, ptr %153, i64 %155
  %157 = load i32, ptr %156, align 4, !tbaa !3
  %158 = mul nsw i32 4, %157
  %159 = load i32, ptr %8, align 4, !tbaa !3
  %160 = add nsw i32 %158, %159
  %161 = sitofp i32 %160 to double
  %162 = load ptr, ptr %12, align 8, !tbaa !15
  %163 = getelementptr inbounds nuw %struct.cs_symbolic, ptr %162, i32 0, i32 7
  store double %161, ptr %163, align 8, !tbaa !23
  %164 = load ptr, ptr %12, align 8, !tbaa !15
  %165 = getelementptr inbounds nuw %struct.cs_symbolic, ptr %164, i32 0, i32 7
  %166 = load double, ptr %165, align 8, !tbaa !23
  %167 = load ptr, ptr %12, align 8, !tbaa !15
  %168 = getelementptr inbounds nuw %struct.cs_symbolic, ptr %167, i32 0, i32 6
  store double %166, ptr %168, align 8, !tbaa !26
  br label %169

169:                                              ; preds = %150, %149
  %170 = load i32, ptr %10, align 4, !tbaa !3
  %171 = icmp ne i32 %170, 0
  br i1 %171, label %172, label %174

172:                                              ; preds = %169
  %173 = load ptr, ptr %12, align 8, !tbaa !15
  br label %177

174:                                              ; preds = %169
  %175 = load ptr, ptr %12, align 8, !tbaa !15
  %176 = call ptr @cs_sfree(ptr noundef %175)
  br label %177

177:                                              ; preds = %174, %172
  %178 = phi ptr [ %173, %172 ], [ %176, %174 ]
  store ptr %178, ptr %4, align 8
  store i32 1, ptr %13, align 4
  br label %179

179:                                              ; preds = %177, %44, %30, %22
  call void @llvm.lifetime.end.p0(i64 8, ptr %12) #3
  call void @llvm.lifetime.end.p0(i64 8, ptr %11) #3
  call void @llvm.lifetime.end.p0(i64 4, ptr %10) #3
  call void @llvm.lifetime.end.p0(i64 4, ptr %9) #3
  call void @llvm.lifetime.end.p0(i64 4, ptr %8) #3
  %180 = load ptr, ptr %4, align 8
  ret ptr %180
}