; Function Attrs: nounwind uwtable
define ptr @cs_sqr(i32 noundef %0, ptr noundef %1, i32 noundef %2) local_unnamed_addr #0 {
  %.not = icmp eq ptr %1, null
  br i1 %.not, label %69, label %4

4:                                                ; preds = %3
  %5 = getelementptr inbounds nuw i8, ptr %1, i64 40
  %6 = load i32, ptr %5, align 8, !tbaa !3
  %7 = icmp eq i32 %6, -1
  br i1 %7, label %8, label %69

8:                                                ; preds = %4
  %9 = getelementptr inbounds nuw i8, ptr %1, i64 8
  %10 = load i32, ptr %9, align 8, !tbaa !11
  %11 = tail call ptr @cs_calloc(i32 noundef 1, i64 noundef 64) #3
  %.not56 = icmp eq ptr %11, null
  br i1 %.not56, label %69, label %12

12:                                               ; preds = %8
  %13 = tail call ptr @cs_amd(i32 noundef %0, ptr noundef nonnull %1) #3
  %14 = getelementptr inbounds nuw i8, ptr %11, i64 8
  store ptr %13, ptr %14, align 8, !tbaa !12
  %.not57 = icmp ne i32 %0, 0
  %.not58 = icmp eq ptr %13, null
  %or.cond = select i1 %.not57, i1 %.not58, i1 false
  br i1 %or.cond, label %15, label %17

15:                                               ; preds = %12
  %16 = tail call ptr @cs_sfree(ptr noundef nonnull %11) #3
  br label %69

17:                                               ; preds = %12
  %.not59 = icmp eq i32 %2, 0
  br i1 %.not59, label %.critedge65, label %18

18:                                               ; preds = %17
  br i1 %.not57, label %19, label %21

19:                                               ; preds = %18
  %20 = tail call ptr @cs_permute(ptr noundef nonnull %1, ptr noundef null, ptr noundef %13, i32 noundef 0) #3
  br label %21

21:                                               ; preds = %18, %19
  %22 = phi ptr [ %20, %19 ], [ %1, %18 ]
  %23 = tail call ptr @cs_etree(ptr noundef %22, i32 noundef 1) #3
  %24 = getelementptr inbounds nuw i8, ptr %11, i64 16
  store ptr %23, ptr %24, align 8, !tbaa !15
  %25 = tail call ptr @cs_post(ptr noundef %23, i32 noundef %10) #3
  %26 = load ptr, ptr %24, align 8, !tbaa !15
  %27 = tail call ptr @cs_counts(ptr noundef %22, ptr noundef %26, ptr noundef %25, i32 noundef 1) #3
  %28 = getelementptr inbounds nuw i8, ptr %11, i64 24
  store ptr %27, ptr %28, align 8, !tbaa !16
  %29 = tail call ptr @cs_free(ptr noundef %25) #3
  %.not60 = icmp eq ptr %22, null
  br i1 %.not60, label %.critedge, label %30

30:                                               ; preds = %21
  %31 = load ptr, ptr %24, align 8, !tbaa !15
  %.not61 = icmp eq ptr %31, null
  br i1 %.not61, label %.critedge, label %32

32:                                               ; preds = %30
  %33 = load ptr, ptr %28, align 8, !tbaa !16
  %.not62 = icmp eq ptr %33, null
  br i1 %.not62, label %.critedge, label %34

34:                                               ; preds = %32
  %35 = tail call fastcc i32 @cs_vcount(ptr noundef %22, ptr noundef %11)
  %.not66 = icmp eq i32 %35, 0
  br i1 %.not66, label %.critedge, label %36

36:                                               ; preds = %34
  %37 = getelementptr inbounds nuw i8, ptr %11, i64 56
  store double 0.000000e+00, ptr %37, align 8, !tbaa !17
  %38 = icmp sgt i32 %10, 0
  br i1 %38, label %.lr.ph, label %47

.lr.ph:                                           ; preds = %36
  %39 = load ptr, ptr %28, align 8, !tbaa !16
  %wide.trip.count = zext nneg i32 %10 to i64
  br label %40

40:                                               ; preds = %.lr.ph, %40
  %indvars.iv = phi i64 [ 0, %.lr.ph ], [ %indvars.iv.next, %40 ]
  %41 = phi double [ 0.000000e+00, %.lr.ph ], [ %45, %40 ]
  %42 = getelementptr inbounds nuw i32, ptr %39, i64 %indvars.iv
  %43 = load i32, ptr %42, align 4, !tbaa !18
  %44 = sitofp i32 %43 to double
  %45 = fadd double %41, %44
  %indvars.iv.next = add nuw nsw i64 %indvars.iv, 1
  %exitcond.not = icmp eq i64 %indvars.iv.next, %wide.trip.count
  br i1 %exitcond.not, label %._crit_edge, label %40, !llvm.loop !19

._crit_edge:                                      ; preds = %40
  store double %45, ptr %37, align 8, !tbaa !17
  %46 = fcmp ult double %45, 0.000000e+00
  br label %47

47:                                               ; preds = %._crit_edge, %36
  %48 = phi i1 [ %46, %._crit_edge ], [ false, %36 ]
  %49 = getelementptr inbounds nuw i8, ptr %11, i64 48
  %50 = load double, ptr %49, align 8, !tbaa !21
  %51 = fcmp ult double %50, 0.000000e+00
  br i1 %51, label %.critedge, label %52

52:                                               ; preds = %47
  br label %.critedge

.critedge:                                        ; preds = %21, %30, %32, %34, %52, %47
  %53 = phi i1 [ true, %47 ], [ %48, %52 ], [ true, %34 ], [ true, %32 ], [ true, %30 ], [ true, %21 ]
  br i1 %.not57, label %54, label %66

54:                                               ; preds = %.critedge
  %55 = tail call ptr @cs_spfree(ptr noundef %22) #3
  br label %66

.critedge65:                                      ; preds = %17
  %56 = getelementptr inbounds nuw i8, ptr %1, i64 16
  %57 = load ptr, ptr %56, align 8, !tbaa !22
  %58 = sext i32 %10 to i64
  %59 = getelementptr inbounds i32, ptr %57, i64 %58
  %60 = load i32, ptr %59, align 4, !tbaa !18
  %61 = shl nsw i32 %60, 2
  %62 = add nsw i32 %61, %10
  %63 = sitofp i32 %62 to double
  %64 = getelementptr inbounds nuw i8, ptr %11, i64 56
  store double %63, ptr %64, align 8, !tbaa !17
  %65 = getelementptr inbounds nuw i8, ptr %11, i64 48
  store double %63, ptr %65, align 8, !tbaa !21
  br label %69

66:                                               ; preds = %.critedge, %54
  br i1 %53, label %67, label %69

67:                                               ; preds = %66
  %68 = tail call ptr @cs_sfree(ptr noundef nonnull %11) #3
  br label %69

69:                                               ; preds = %67, %.critedge65, %66, %8, %3, %4, %15
  %.0 = phi ptr [ %16, %15 ], [ null, %4 ], [ null, %3 ], [ null, %8 ], [ %68, %67 ], [ %11, %.critedge65 ], [ %11, %66 ]
  ret ptr %.0
}